target datalayout = "e-m:e-p270:32:32-p271:32:32-p272:64:64-i64:64-i128:128-f80:128-n8:16:32:64-S128"
target triple = "x86_64-pc-linux-gnu"

@hf_afp_map_id_type = internal global i32 0, align 4
@hf_afp_map_id = internal global i32 0, align 4
@hf_afp_UUID = internal global i32 0, align 4

; Function Attrs: null_pointer_is_valid sspstrong uwtable
define internal i32 @dissect_query_afp_map_id(ptr noundef %0, ptr noundef %1, ptr noundef %2, i32 noundef %3) #1 {
  %5 = alloca ptr, align 8
  %6 = alloca ptr, align 8
  %7 = alloca ptr, align 8
  %8 = alloca i32, align 4
  %9 = alloca i8, align 1
  store ptr %0, ptr %5, align 8
  store ptr %1, ptr %6, align 8
  store ptr %2, ptr %7, align 8
  store i32 %3, ptr %8, align 4
  call void @llvm.lifetime.start.p0(i64 1, ptr %9) #8
  %10 = load ptr, ptr %5, align 8
  %11 = load i32, ptr %8, align 4
  %12 = call zeroext i8 @tvb_get_uint8(ptr noundef %10, i32 noundef %11)
  store i8 %12, ptr %9, align 1
  %13 = load ptr, ptr %7, align 8
  %14 = load i32, ptr @hf_afp_map_id_type, align 4
  %15 = load ptr, ptr %5, align 8
  %16 = load i32, ptr %8, align 4
  %17 = call ptr @proto_tree_add_item(ptr noundef %13, i32 noundef %14, ptr noundef %15, i32 noundef %16, i32 noundef 1, i32 noundef 0)
  %18 = load i32, ptr %8, align 4
  %19 = add i32 %18, 1
  store i32 %19, ptr %8, align 4
  %20 = load i8, ptr %9, align 1
  %21 = zext i8 %20 to i32
  %22 = icmp slt i32 %21, 5
  br i1 %22, label %23, label %31

23:                                               ; preds = %4
  %24 = load ptr, ptr %7, align 8
  %25 = load i32, ptr @hf_afp_map_id, align 4
  %26 = load ptr, ptr %5, align 8
  %27 = load i32, ptr %8, align 4
  %28 = call ptr @proto_tree_add_item(ptr noundef %24, i32 noundef %25, ptr noundef %26, i32 noundef %27, i32 noundef 4, i32 noundef 0)
  %29 = load i32, ptr %8, align 4
  %30 = add i32 %29, 4
  store i32 %30, ptr %8, align 4
  br label %39

31:                                               ; preds = %4
  %32 = load ptr, ptr %7, align 8
  %33 = load i32, ptr @hf_afp_UUID, align 4
  %34 = load ptr, ptr %5, align 8
  %35 = load i32, ptr %8, align 4
  %36 = call ptr @proto_tree_add_item(ptr noundef %32, i32 noundef %33, ptr noundef %34, i32 noundef %35, i32 noundef 16, i32 noundef 0)
  %37 = load i32, ptr %8, align 4
  %38 = add i32 %37, 16
  store i32 %38, ptr %8, align 4
  br label %39

39:                                               ; preds = %31, %23
  %40 = load i32, ptr %8, align 4
  call void @llvm.lifetime.end.p0(i64 1, ptr %9) #8
  ret i32 %40
}