; Function Attrs: null_pointer_is_valid sspstrong uwtable
define internal fastcc range(i32 6, 19) i32 @dissect_query_afp_map_id(ptr noundef %0, ptr noundef %1) unnamed_addr #1 {
  %3 = tail call zeroext i8 @tvb_get_uint8(ptr noundef %0, i32 noundef 1)
  %4 = load i32, ptr @hf_afp_map_id_type, align 4
  %5 = tail call ptr @proto_tree_add_item(ptr noundef %1, i32 noundef %4, ptr noundef %0, i32 noundef 1, i32 noundef 1, i32 noundef 0)
  %6 = icmp ult i8 %3, 5
  %. = select i1 %6, i32 4, i32 16
  %.2 = select i1 %6, i32 6, i32 18
  %hf_afp_map_id.val = load i32, ptr @hf_afp_map_id, align 4
  %hf_afp_UUID.val = load i32, ptr @hf_afp_UUID, align 4
  %7 = select i1 %6, i32 %hf_afp_map_id.val, i32 %hf_afp_UUID.val
  %8 = tail call ptr @proto_tree_add_item(ptr noundef %1, i32 noundef %7, ptr noundef %0, i32 noundef 2, i32 noundef %., i32 noundef 0)
  ret i32 %.2
}